target datalayout = "e-m:e-p270:32:32-p271:32:32-p272:64:64-i64:64-i128:128-f80:128-n8:16:32:64-S128"
target triple = "x86_64-pc-linux-gnu"

%struct.AVFormatContext = type { ptr, ptr, ptr, ptr, ptr, i32, i32, ptr, i32, ptr, i32, ptr, ptr, i64, i64, i64, i32, i32, i32, i64, i64, ptr, i32, i32, ptr, i32, i32, i32, i32, ptr, i64, i32, i32, %struct.AVIOInterruptCB, i32, i32, i32, i32, i64, i32, i32, i32, i32, i32, i32, i32, i32, i32, i32, i32, i32, i64, i32, i32, i32, i32, i32, ptr, ptr, ptr, ptr, i32, ptr, ptr, ptr, ptr, i32, ptr, ptr, i64, ptr, ptr, ptr, i64 }
%struct.AVIOInterruptCB = type { ptr, ptr }
%struct.AVStream = type { ptr, i32, i32, ptr, ptr, %struct.AVRational, i64, i64, i64, i32, i32, %struct.AVRational, ptr, %struct.AVRational, %struct.AVPacket, i32, %struct.AVRational, i32 }
%struct.AVPacket = type { ptr, i64, i64, ptr, i32, i32, i32, ptr, i32, i64, i64, ptr, ptr, %struct.AVRational }
%struct.AVRational = type { i32, i32 }
%struct.FFStream = type { %struct.AVStream, ptr, i32, ptr, i32, ptr, i32, %struct.anon, i32, i32, %struct.FFFrac, ptr, ptr, i32, i32, i64, i64, i32, i32, i32, i64, i64, i64, i32, i64, i64, i64, i32, i32, [17 x i64], [17 x i8], [17 x i64], i64, i8, i8, %struct.AVRational, %struct.AVProbeData, ptr, i64, i32, i32, i32, ptr, i32, i32, i64, i64, ptr, %struct.AVRational }
%struct.anon = type { ptr, i32 }
%struct.FFFrac = type { i64, i64, i64 }
%struct.AVProbeData = type { ptr, ptr, i32, ptr }

; Function Attrs: alwaysinline nounwind uwtable
define internal ptr @ffstream(ptr noundef %0) #2 {
  %2 = alloca ptr, align 8
  store ptr %0, ptr %2, align 8, !tbaa !9
  %3 = load ptr, ptr %2, align 8, !tbaa !9
  ret ptr %3
}

; Function Attrs: nounwind uwtable
define void @ff_read_frame_flush(ptr noundef %0) #0 {
  %2 = alloca ptr, align 8
  %3 = alloca i32, align 4
  %4 = alloca i32, align 4
  %5 = alloca ptr, align 8
  %6 = alloca ptr, align 8
  %7 = alloca i32, align 4
  store ptr %0, ptr %2, align 8, !tbaa !4
  %8 = load ptr, ptr %2, align 8, !tbaa !4
  call void @ff_flush_packet_queue(ptr noundef %8)
  call void @llvm.lifetime.start.p0(i64 4, ptr %3) #11
  store i32 0, ptr %3, align 4, !tbaa !13
  br label %9

9:                                                ; preds = %73, %1
  %10 = load i32, ptr %3, align 4, !tbaa !13
  %11 = load ptr, ptr %2, align 8, !tbaa !4
  %12 = getelementptr inbounds nuw %struct.AVFormatContext, ptr %11, i32 0, i32 6
  %13 = load i32, ptr %12, align 4, !tbaa !15
  %14 = icmp ult i32 %10, %13
  br i1 %14, label %16, label %15

15:                                               ; preds = %9
  store i32 2, ptr %4, align 4
  call void @llvm.lifetime.end.p0(i64 4, ptr %3) #11
  br label %76

16:                                               ; preds = %9
  call void @llvm.lifetime.start.p0(i64 8, ptr %5) #11
  %17 = load ptr, ptr %2, align 8, !tbaa !4
  %18 = getelementptr inbounds nuw %struct.AVFormatContext, ptr %17, i32 0, i32 7
  %19 = load ptr, ptr %18, align 8, !tbaa !30
  %20 = load i32, ptr %3, align 4, !tbaa !13
  %21 = zext i32 %20 to i64
  %22 = getelementptr inbounds nuw ptr, ptr %19, i64 %21
  %23 = load ptr, ptr %22, align 8, !tbaa !9
  store ptr %23, ptr %5, align 8, !tbaa !9
  call void @llvm.lifetime.start.p0(i64 8, ptr %6) #11
  %24 = load ptr, ptr %5, align 8, !tbaa !9
  %25 = call ptr @ffstream(ptr noundef %24)
  store ptr %25, ptr %6, align 8, !tbaa !31
  %26 = load ptr, ptr %6, align 8, !tbaa !31
  %27 = getelementptr inbounds nuw %struct.FFStream, ptr %26, i32 0, i32 42
  %28 = load ptr, ptr %27, align 8, !tbaa !107
  %29 = icmp ne ptr %28, null
  br i1 %29, label %30, label %36

30:                                               ; preds = %16
  %31 = load ptr, ptr %6, align 8, !tbaa !31
  %32 = getelementptr inbounds nuw %struct.FFStream, ptr %31, i32 0, i32 42
  %33 = load ptr, ptr %32, align 8, !tbaa !107
  call void @av_parser_close(ptr noundef %33)
  %34 = load ptr, ptr %6, align 8, !tbaa !31
  %35 = getelementptr inbounds nuw %struct.FFStream, ptr %34, i32 0, i32 42
  store ptr null, ptr %35, align 8, !tbaa !107
  br label %36

36:                                               ; preds = %30, %16
  %37 = load ptr, ptr %6, align 8, !tbaa !31
  %38 = getelementptr inbounds nuw %struct.FFStream, ptr %37, i32 0, i32 38
  store i64 -9223372036854775808, ptr %38, align 8, !tbaa !108
  %39 = load ptr, ptr %6, align 8, !tbaa !31
  %40 = getelementptr inbounds nuw %struct.FFStream, ptr %39, i32 0, i32 32
  store i64 -9223372036854775808, ptr %40, align 8, !tbaa !109
  %41 = load ptr, ptr %6, align 8, !tbaa !31
  %42 = getelementptr inbounds nuw %struct.FFStream, ptr %41, i32 0, i32 45
  %43 = load i64, ptr %42, align 8, !tbaa !110
  %44 = icmp eq i64 %43, -9223372036854775808
  br i1 %44, label %45, label %48

45:                                               ; preds = %36
  %46 = load ptr, ptr %6, align 8, !tbaa !31
  %47 = getelementptr inbounds nuw %struct.FFStream, ptr %46, i32 0, i32 46
  store i64 9223090561878065151, ptr %47, align 8, !tbaa !41
  br label %51

48:                                               ; preds = %36
  %49 = load ptr, ptr %6, align 8, !tbaa !31
  %50 = getelementptr inbounds nuw %struct.FFStream, ptr %49, i32 0, i32 46
  store i64 -9223372036854775808, ptr %50, align 8, !tbaa !41
  br label %51

51:                                               ; preds = %48, %45
  %52 = load ptr, ptr %2, align 8, !tbaa !4
  %53 = getelementptr inbounds nuw %struct.AVFormatContext, ptr %52, i32 0, i32 42
  %54 = load i32, ptr %53, align 4, !tbaa !111
  %55 = load ptr, ptr %6, align 8, !tbaa !31
  %56 = getelementptr inbounds nuw %struct.FFStream, ptr %55, i32 0, i32 40
  store i32 %54, ptr %56, align 4, !tbaa !112
  call void @llvm.lifetime.start.p0(i64 4, ptr %7) #11
  store i32 0, ptr %7, align 4, !tbaa !13
  br label %57

57:                                               ; preds = %67, %51
  %58 = load i32, ptr %7, align 4, !tbaa !13
  %59 = icmp slt i32 %58, 17
  br i1 %59, label %61, label %60

60:                                               ; preds = %57
  store i32 5, ptr %4, align 4
  call void @llvm.lifetime.end.p0(i64 4, ptr %7) #11
  br label %70

61:                                               ; preds = %57
  %62 = load ptr, ptr %6, align 8, !tbaa !31
  %63 = getelementptr inbounds nuw %struct.FFStream, ptr %62, i32 0, i32 31
  %64 = load i32, ptr %7, align 4, !tbaa !13
  %65 = sext i32 %64 to i64
  %66 = getelementptr inbounds [17 x i64], ptr %63, i64 0, i64 %65
  store i64 -9223372036854775808, ptr %66, align 8, !tbaa !11
  br label %67

67:                                               ; preds = %61
  %68 = load i32, ptr %7, align 4, !tbaa !13
  %69 = add nsw i32 %68, 1
  store i32 %69, ptr %7, align 4, !tbaa !13
  br label %57, !llvm.loop !113

70:                                               ; preds = %60
  %71 = load ptr, ptr %6, align 8, !tbaa !31
  %72 = getelementptr inbounds nuw %struct.FFStream, ptr %71, i32 0, i32 19
  store i32 0, ptr %72, align 8, !tbaa !114
  call void @llvm.lifetime.end.p0(i64 8, ptr %6) #11
  call void @llvm.lifetime.end.p0(i64 8, ptr %5) #11
  br label %73

73:                                               ; preds = %70
  %74 = load i32, ptr %3, align 4, !tbaa !13
  %75 = add i32 %74, 1
  store i32 %75, ptr %3, align 4, !tbaa !13
  br label %9, !llvm.loop !115

76:                                               ; preds = %15
  ret void
}